; ModuleID = '23/813.c'
source_filename = "23/813.c"
target datalayout = "e-m:e-p270:32:32-p271:32:32-p272:64:64-i64:64-f80:128-n8:16:32:64-S128"
target triple = "x86_64-pc-linux-gnu"

@.str = private unnamed_addr constant [3 x i8] c"%s\00", align 1
@.str.1 = private unnamed_addr constant [2 x i8] c" \00", align 1

; Function Attrs: noinline nounwind uwtable
define dso_local void @main() #0 {
  %1 = alloca [101 x i8], align 16
  %2 = alloca [50 x i8*], align 16
  %3 = alloca i8*, align 8
  %4 = alloca i32, align 4
  %5 = alloca i32, align 4
  %6 = getelementptr inbounds [101 x i8], [101 x i8]* %1, i64 0, i64 0
  store i8* %6, i8** %3, align 8
  store i32 0, i32* %4, align 4
  %7 = getelementptr inbounds [101 x i8], [101 x i8]* %1, i64 0, i64 0
  %8 = call i32 (i8*, ...) bitcast (i32 (...)* @gets to i32 (i8*, ...)*)(i8* %7)
  %9 = getelementptr inbounds [101 x i8], [101 x i8]* %1, i64 0, i64 0
  %10 = load i32, i32* %4, align 4
  %11 = add nsw i32 %10, 1
  store i32 %11, i32* %4, align 4
  %12 = sext i32 %10 to i64
  %13 = getelementptr inbounds [50 x i8*], [50 x i8*]* %2, i64 0, i64 %12
  store i8* %9, i8** %13, align 8
  store i32 0, i32* %5, align 4
  br label %14

14:                                               ; preds = %33, %0
  %15 = load i8*, i8** %3, align 8
  %16 = load i8, i8* %15, align 1
  %17 = sext i8 %16 to i32
  %18 = icmp ne i32 %17, 0
  br i1 %18, label %19, label %38

19:                                               ; preds = %14
  %20 = load i8*, i8** %3, align 8
  %21 = load i8, i8* %20, align 1
  %22 = sext i8 %21 to i32
  %23 = icmp eq i32 %22, 32
  br i1 %23, label %24, label %32

24:                                               ; preds = %19
  %25 = load i8*, i8** %3, align 8
  store i8 0, i8* %25, align 1
  %26 = load i8*, i8** %3, align 8
  %27 = getelementptr inbounds i8, i8* %26, i64 1
  %28 = load i32, i32* %4, align 4
  %29 = add nsw i32 %28, 1
  store i32 %29, i32* %4, align 4
  %30 = sext i32 %28 to i64
  %31 = getelementptr inbounds [50 x i8*], [50 x i8*]* %2, i64 0, i64 %30
  store i8* %27, i8** %31, align 8
  br label %32

32:                                               ; preds = %24, %19
  br label %33

33:                                               ; preds = %32
  %34 = load i32, i32* %5, align 4
  %35 = add nsw i32 %34, 1
  store i32 %35, i32* %5, align 4
  %36 = load i8*, i8** %3, align 8
  %37 = getelementptr inbounds i8, i8* %36, i32 1
  store i8* %37, i8** %3, align 8
  br label %14

38:                                               ; preds = %14
  %39 = load i32, i32* %4, align 4
  %40 = add nsw i32 %39, -1
  store i32 %40, i32* %4, align 4
  br label %41

41:                                               ; preds = %55, %38
  %42 = load i32, i32* %4, align 4
  %43 = icmp sge i32 %42, 0
  br i1 %43, label %44, label %58

44:                                               ; preds = %41
  %45 = load i32, i32* %4, align 4
  %46 = sext i32 %45 to i64
  %47 = getelementptr inbounds [50 x i8*], [50 x i8*]* %2, i64 0, i64 %46
  %48 = load i8*, i8** %47, align 8
  %49 = call i32 (i8*, ...) @printf(i8* getelementptr inbounds ([3 x i8], [3 x i8]* @.str, i64 0, i64 0), i8* %48)
  %50 = load i32, i32* %4, align 4
  %51 = icmp ne i32 %50, 0
  br i1 %51, label %52, label %54

52:                                               ; preds = %44
  %53 = call i32 (i8*, ...) @printf(i8* getelementptr inbounds ([2 x i8], [2 x i8]* @.str.1, i64 0, i64 0))
  br label %54

54:                                               ; preds = %52, %44
  br label %55

55:                                               ; preds = %54
  %56 = load i32, i32* %4, align 4
  %57 = add nsw i32 %56, -1
  store i32 %57, i32* %4, align 4
  br label %41

58:                                               ; preds = %41
  ret void
}

declare dso_local i32 @gets(...) #1

declare dso_local i32 @printf(i8*, ...) #1


!llvm.module.flags = !{!0}
!llvm.ident = !{!1}

!0 = !{i32 1, !"wchar_size", i32 4}
!1 = !{!"clang version 10.0.0-4ubuntu1 "}
